target datalayout = "e-m:e-p270:32:32-p271:32:32-p272:64:64-i64:64-i128:128-f80:128-n8:16:32:64-S128"
target triple = "x86_64-pc-linux-gnu"

%struct.ParallelApplyWorkerInfo = type { ptr, ptr, ptr, i8, i8, ptr }
%struct.ParallelApplyWorkerShared = type { i8, i32, i32, i16, i32, %struct.pg_atomic_uint32, i64, i32, %struct.FileSet }
%struct.pg_atomic_uint32 = type { i32 }
%struct.FileSet = type { i32, i32, i32, [8 x i32] }
%struct.LogicalRepWorker = type { i32, i64, i8, i16, ptr, i32, i32, i32, i32, i8, i64, i8, ptr, i32, i8, i64, i64, i64, i64, i64 }

@ParallelApplyWorkerPool = internal global ptr null, align 8
@MyLogicalRepWorker = external global ptr, align 8

; Function Attrs: nounwind uwtable
define internal void @pa_free_worker_info(ptr noundef %0) #0 {
  %2 = alloca ptr, align 8
  store ptr %0, ptr %2, align 8
  %3 = load ptr, ptr %2, align 8
  %4 = getelementptr inbounds nuw %struct.ParallelApplyWorkerInfo, ptr %3, i32 0, i32 0
  %5 = load ptr, ptr %4, align 8
  %6 = icmp ne ptr %5, null
  br i1 %6, label %7, label %11

7:                                                ; preds = %1
  %8 = load ptr, ptr %2, align 8
  %9 = getelementptr inbounds nuw %struct.ParallelApplyWorkerInfo, ptr %8, i32 0, i32 0
  %10 = load ptr, ptr %9, align 8
  call void @shm_mq_detach(ptr noundef %10)
  br label %11

11:                                               ; preds = %7, %1
  %12 = load ptr, ptr %2, align 8
  %13 = getelementptr inbounds nuw %struct.ParallelApplyWorkerInfo, ptr %12, i32 0, i32 1
  %14 = load ptr, ptr %13, align 8
  %15 = icmp ne ptr %14, null
  br i1 %15, label %16, label %20

16:                                               ; preds = %11
  %17 = load ptr, ptr %2, align 8
  %18 = getelementptr inbounds nuw %struct.ParallelApplyWorkerInfo, ptr %17, i32 0, i32 1
  %19 = load ptr, ptr %18, align 8
  call void @shm_mq_detach(ptr noundef %19)
  br label %20

20:                                               ; preds = %16, %11
  %21 = load ptr, ptr %2, align 8
  %22 = getelementptr inbounds nuw %struct.ParallelApplyWorkerInfo, ptr %21, i32 0, i32 3
  %23 = load i8, ptr %22, align 8, !range !6, !noundef !7
  %24 = trunc i8 %23 to i1
  br i1 %24, label %25, label %34

25:                                               ; preds = %20
  %26 = load ptr, ptr @MyLogicalRepWorker, align 8
  %27 = getelementptr inbounds nuw %struct.LogicalRepWorker, ptr %26, i32 0, i32 7
  %28 = load i32, ptr %27, align 8
  %29 = load ptr, ptr %2, align 8
  %30 = getelementptr inbounds nuw %struct.ParallelApplyWorkerInfo, ptr %29, i32 0, i32 5
  %31 = load ptr, ptr %30, align 8
  %32 = getelementptr inbounds nuw %struct.ParallelApplyWorkerShared, ptr %31, i32 0, i32 1
  %33 = load i32, ptr %32, align 4
  call void @stream_cleanup_files(i32 noundef %28, i32 noundef %33)
  br label %34

34:                                               ; preds = %25, %20
  %35 = load ptr, ptr %2, align 8
  %36 = getelementptr inbounds nuw %struct.ParallelApplyWorkerInfo, ptr %35, i32 0, i32 2
  %37 = load ptr, ptr %36, align 8
  %38 = icmp ne ptr %37, null
  br i1 %38, label %39, label %43

39:                                               ; preds = %34
  %40 = load ptr, ptr %2, align 8
  %41 = getelementptr inbounds nuw %struct.ParallelApplyWorkerInfo, ptr %40, i32 0, i32 2
  %42 = load ptr, ptr %41, align 8
  call void @dsm_detach(ptr noundef %42)
  br label %43

43:                                               ; preds = %39, %34
  %44 = load ptr, ptr @ParallelApplyWorkerPool, align 8
  %45 = load ptr, ptr %2, align 8
  %46 = call ptr @list_delete_ptr(ptr noundef %44, ptr noundef %45)
  store ptr %46, ptr @ParallelApplyWorkerPool, align 8
  %47 = load ptr, ptr %2, align 8
  call void @pfree(ptr noundef %47)
  ret void
}