; Function Attrs: nounwind uwtable
define internal fastcc void @pa_free_worker_info(ptr noundef %0) unnamed_addr #0 {
  %2 = load ptr, ptr %0, align 8
  %.not = icmp eq ptr %2, null
  br i1 %.not, label %4, label %3

3:                                                ; preds = %1
  tail call void @shm_mq_detach(ptr noundef nonnull %2) #10
  br label %4

4:                                                ; preds = %3, %1
  %5 = getelementptr inbounds nuw i8, ptr %0, i64 8
  %6 = load ptr, ptr %5, align 8
  %.not12 = icmp eq ptr %6, null
  br i1 %.not12, label %8, label %7

7:                                                ; preds = %4
  tail call void @shm_mq_detach(ptr noundef nonnull %6) #10
  br label %8

8:                                                ; preds = %7, %4
  %9 = getelementptr inbounds nuw i8, ptr %0, i64 24
  %10 = load i8, ptr %9, align 8, !range !4, !noundef !5
  %11 = trunc nuw i8 %10 to i1
  br i1 %11, label %12, label %20

12:                                               ; preds = %8
  %13 = load ptr, ptr @MyLogicalRepWorker, align 8
  %14 = getelementptr inbounds nuw i8, ptr %13, i64 40
  %15 = load i32, ptr %14, align 8
  %16 = getelementptr inbounds nuw i8, ptr %0, i64 32
  %17 = load ptr, ptr %16, align 8
  %18 = getelementptr inbounds nuw i8, ptr %17, i64 4
  %19 = load i32, ptr %18, align 4
  tail call void @stream_cleanup_files(i32 noundef %15, i32 noundef %19) #10
  br label %20

20:                                               ; preds = %12, %8
  %21 = getelementptr inbounds nuw i8, ptr %0, i64 16
  %22 = load ptr, ptr %21, align 8
  %.not13 = icmp eq ptr %22, null
  br i1 %.not13, label %24, label %23

23:                                               ; preds = %20
  tail call void @dsm_detach(ptr noundef nonnull %22) #10
  br label %24

24:                                               ; preds = %23, %20
  %25 = load ptr, ptr @ParallelApplyWorkerPool, align 8
  %26 = tail call ptr @list_delete_ptr(ptr noundef %25, ptr noundef nonnull %0) #10
  store ptr %26, ptr @ParallelApplyWorkerPool, align 8
  tail call void @pfree(ptr noundef nonnull %0) #10
  ret void
}